target datalayout = "e-m:e-p270:32:32-p271:32:32-p272:64:64-i64:64-i128:128-f80:128-n8:16:32:64-S128"
target triple = "x86_64-pc-linux-gnu"

%struct.OSQPSolver = type { ptr, ptr, ptr, ptr }
%struct.OSQPWorkspace_ = type { ptr, ptr, ptr, ptr, ptr, ptr, ptr, ptr, ptr, ptr, ptr, ptr, ptr, ptr, ptr, ptr, ptr, ptr, ptr, ptr, ptr, ptr, ptr, ptr, ptr, ptr, double, double, double, ptr, i64, i64, i64, i64, ptr }
%struct.OSQPData = type { i64, i64, ptr, ptr, ptr, ptr, ptr }
%struct.OSQPSettings = type { i64, i32, i64, i64, i64, i64, i64, i64, double, i64, double, double, i64, i64, double, i32, i64, i64, double, double, i64, double, double, double, double, i64, i64, double, double, i64 }

; Function Attrs: nounwind uwtable
define i64 @set_rho_vec(ptr noundef %0) #0 {
  %2 = alloca ptr, align 8
  %3 = alloca i64, align 8
  %4 = alloca ptr, align 8
  %5 = alloca ptr, align 8
  store ptr %0, ptr %2, align 8
  store i64 0, ptr %3, align 8
  %6 = load ptr, ptr %2, align 8
  %7 = getelementptr inbounds %struct.OSQPSolver, ptr %6, i32 0, i32 0
  %8 = load ptr, ptr %7, align 8
  store ptr %8, ptr %4, align 8
  %9 = load ptr, ptr %2, align 8
  %10 = getelementptr inbounds %struct.OSQPSolver, ptr %9, i32 0, i32 3
  %11 = load ptr, ptr %10, align 8
  store ptr %11, ptr %5, align 8
  %12 = load ptr, ptr %4, align 8
  %13 = getelementptr inbounds %struct.OSQPSettings, ptr %12, i32 0, i32 8
  %14 = load double, ptr %13, align 8
  %15 = fcmp ogt double %14, 0x3EB0C6F7A0B5ED8D
  br i1 %15, label %16, label %20

16:                                               ; preds = %1
  %17 = load ptr, ptr %4, align 8
  %18 = getelementptr inbounds %struct.OSQPSettings, ptr %17, i32 0, i32 8
  %19 = load double, ptr %18, align 8
  br label %21

20:                                               ; preds = %1
  br label %21

21:                                               ; preds = %20, %16
  %22 = phi double [ %19, %16 ], [ 0x3EB0C6F7A0B5ED8D, %20 ]
  %23 = fcmp olt double %22, 1.000000e+06
  br i1 %23, label %24, label %36

24:                                               ; preds = %21
  %25 = load ptr, ptr %4, align 8
  %26 = getelementptr inbounds %struct.OSQPSettings, ptr %25, i32 0, i32 8
  %27 = load double, ptr %26, align 8
  %28 = fcmp ogt double %27, 0x3EB0C6F7A0B5ED8D
  br i1 %28, label %29, label %33

29:                                               ; preds = %24
  %30 = load ptr, ptr %4, align 8
  %31 = getelementptr inbounds %struct.OSQPSettings, ptr %30, i32 0, i32 8
  %32 = load double, ptr %31, align 8
  br label %34

33:                                               ; preds = %24
  br label %34

34:                                               ; preds = %33, %29
  %35 = phi double [ %32, %29 ], [ 0x3EB0C6F7A0B5ED8D, %33 ]
  br label %37

36:                                               ; preds = %21
  br label %37

37:                                               ; preds = %36, %34
  %38 = phi double [ %35, %34 ], [ 1.000000e+06, %36 ]
  %39 = load ptr, ptr %4, align 8
  %40 = getelementptr inbounds %struct.OSQPSettings, ptr %39, i32 0, i32 8
  store double %38, ptr %40, align 8
  %41 = load ptr, ptr %5, align 8
  %42 = getelementptr inbounds %struct.OSQPWorkspace_, ptr %41, i32 0, i32 5
  %43 = load ptr, ptr %42, align 8
  %44 = load ptr, ptr %5, align 8
  %45 = getelementptr inbounds %struct.OSQPWorkspace_, ptr %44, i32 0, i32 0
  %46 = load ptr, ptr %45, align 8
  %47 = getelementptr inbounds %struct.OSQPData, ptr %46, i32 0, i32 5
  %48 = load ptr, ptr %47, align 8
  %49 = load ptr, ptr %5, align 8
  %50 = getelementptr inbounds %struct.OSQPWorkspace_, ptr %49, i32 0, i32 0
  %51 = load ptr, ptr %50, align 8
  %52 = getelementptr inbounds %struct.OSQPData, ptr %51, i32 0, i32 6
  %53 = load ptr, ptr %52, align 8
  %54 = call i64 @OSQPVectorf_ew_bounds_type(ptr noundef %43, ptr noundef %48, ptr noundef %53, double noundef 1.000000e-04, double noundef 1.000000e+26)
  store i64 %54, ptr %3, align 8
  %55 = load ptr, ptr %5, align 8
  %56 = getelementptr inbounds %struct.OSQPWorkspace_, ptr %55, i32 0, i32 3
  %57 = load ptr, ptr %56, align 8
  %58 = load ptr, ptr %5, align 8
  %59 = getelementptr inbounds %struct.OSQPWorkspace_, ptr %58, i32 0, i32 5
  %60 = load ptr, ptr %59, align 8
  %61 = load ptr, ptr %4, align 8
  %62 = getelementptr inbounds %struct.OSQPSettings, ptr %61, i32 0, i32 8
  %63 = load double, ptr %62, align 8
  %64 = load ptr, ptr %4, align 8
  %65 = getelementptr inbounds %struct.OSQPSettings, ptr %64, i32 0, i32 8
  %66 = load double, ptr %65, align 8
  %67 = fmul double 1.000000e+03, %66
  call void @OSQPVectorf_set_scalar_conditional(ptr noundef %57, ptr noundef %60, double noundef 0x3EB0C6F7A0B5ED8D, double noundef %63, double noundef %67)
  %68 = load ptr, ptr %5, align 8
  %69 = getelementptr inbounds %struct.OSQPWorkspace_, ptr %68, i32 0, i32 4
  %70 = load ptr, ptr %69, align 8
  %71 = load ptr, ptr %5, align 8
  %72 = getelementptr inbounds %struct.OSQPWorkspace_, ptr %71, i32 0, i32 3
  %73 = load ptr, ptr %72, align 8
  call void @OSQPVectorf_ew_reciprocal(ptr noundef %70, ptr noundef %73)
  %74 = load i64, ptr %3, align 8
  ret i64 %74
}